; Function Attrs: mustprogress nounwind uwtable
define dso_local void @_ZN4node6worker7Message20AddSharedArrayBufferESt10shared_ptrIN2v812BackingStoreEE(ptr noundef nonnull align 8 dereferenceable(136) %this, ptr noundef %backing_store) local_unnamed_addr #6 align 2 {
entry:
  %_M_finish.i = getelementptr inbounds i8, ptr %this, i64 56
  %0 = load ptr, ptr %_M_finish.i, align 8
  %_M_end_of_storage.i = getelementptr inbounds i8, ptr %this, i64 64
  %1 = load ptr, ptr %_M_end_of_storage.i, align 8
  %cmp.not.i = icmp eq ptr %0, %1
  br i1 %cmp.not.i, label %if.else.i, label %if.then.i

if.then.i:                                        ; preds = %entry
  %2 = load ptr, ptr %backing_store, align 8
  store ptr %2, ptr %0, align 8
  %_M_refcount.i.i.i.i.i = getelementptr inbounds i8, ptr %0, i64 8
  store ptr null, ptr %_M_refcount.i.i.i.i.i, align 8
  %_M_refcount4.i.i.i.i.i = getelementptr inbounds i8, ptr %backing_store, i64 8
  %3 = load ptr, ptr %_M_refcount4.i.i.i.i.i, align 8
  store ptr null, ptr %_M_refcount4.i.i.i.i.i, align 8
  store ptr %3, ptr %_M_refcount.i.i.i.i.i, align 8
  store ptr null, ptr %backing_store, align 8
  %4 = load ptr, ptr %_M_finish.i, align 8
  %incdec.ptr.i = getelementptr inbounds i8, ptr %4, i64 16
  store ptr %incdec.ptr.i, ptr %_M_finish.i, align 8
  br label %_ZNSt6vectorISt10shared_ptrIN2v812BackingStoreEESaIS3_EE12emplace_backIJS3_EEERS3_DpOT_.exit

if.else.i:                                        ; preds = %entry
  %shared_array_buffers_ = getelementptr inbounds i8, ptr %this, i64 48
  tail call void @_ZNSt6vectorISt10shared_ptrIN2v812BackingStoreEESaIS3_EE17_M_realloc_insertIJS3_EEEvN9__gnu_cxx17__normal_iteratorIPS3_S5_EEDpOT_(ptr noundef nonnull align 8 dereferenceable(24) %shared_array_buffers_, ptr %0, ptr noundef nonnull align 8 dereferenceable(16) %backing_store)
  br label %_ZNSt6vectorISt10shared_ptrIN2v812BackingStoreEESaIS3_EE12emplace_backIJS3_EEERS3_DpOT_.exit

_ZNSt6vectorISt10shared_ptrIN2v812BackingStoreEESaIS3_EE12emplace_backIJS3_EEERS3_DpOT_.exit: ; preds = %if.then.i, %if.else.i
  ret void
}